target datalayout = "e-m:e-p270:32:32-p271:32:32-p272:64:64-i64:64-i128:128-f80:128-n8:16:32:64-S128"
target triple = "x86_64-pc-linux-gnu"

%class.btMatrix3x3 = type { [3 x %class.btVector3] }
%class.btVector3 = type { [4 x float] }

; Function Attrs: inlinehint mustprogress nounwind uwtable
define linkonce_odr dso_local noundef ptr @_ZN9btVector3cvPfEv(ptr noundef nonnull align 4 dereferenceable(16) %0) #4 comdat align 2 {
  %2 = alloca ptr, align 8
  store ptr %0, ptr %2, align 8, !tbaa !52
  %3 = load ptr, ptr %2, align 8
  %4 = getelementptr inbounds nuw %class.btVector3, ptr %3, i32 0, i32 0
  %5 = getelementptr inbounds [4 x float], ptr %4, i64 0, i64 0
  ret ptr %5
}

; Function Attrs: inlinehint mustprogress nounwind uwtable
define linkonce_odr dso_local noundef nonnull align 4 dereferenceable(16) ptr @_ZN11btMatrix3x3ixEi(ptr noundef nonnull align 4 dereferenceable(48) %0, i32 noundef %1) #4 comdat align 2 {
  %3 = alloca ptr, align 8
  %4 = alloca i32, align 4
  store ptr %0, ptr %3, align 8, !tbaa !57
  store i32 %1, ptr %4, align 4, !tbaa !9
  %5 = load ptr, ptr %3, align 8
  %6 = getelementptr inbounds nuw %class.btMatrix3x3, ptr %5, i32 0, i32 0
  %7 = load i32, ptr %4, align 4, !tbaa !9
  %8 = sext i32 %7 to i64
  %9 = getelementptr inbounds [3 x %class.btVector3], ptr %6, i64 0, i64 %8
  ret ptr %9
}

; Function Attrs: mustprogress uwtable
define linkonce_odr dso_local noundef nonnull align 4 dereferenceable(4) ptr @_ZN24btInverseDynamicsBullet34vec3clEi(ptr noundef nonnull align 4 dereferenceable(16) %0, i32 noundef %1) #2 comdat align 2 {
  %3 = alloca ptr, align 8
  %4 = alloca i32, align 4
  store ptr %0, ptr %3, align 8, !tbaa !12
  store i32 %1, ptr %4, align 4, !tbaa !9
  %5 = load ptr, ptr %3, align 8
  %6 = call noundef ptr @_ZN9btVector3cvPfEv(ptr noundef nonnull align 4 dereferenceable(16) %5)
  %7 = load i32, ptr %4, align 4, !tbaa !9
  %8 = sext i32 %7 to i64
  %9 = getelementptr inbounds float, ptr %6, i64 %8
  ret ptr %9
}

; Function Attrs: mustprogress uwtable
define linkonce_odr dso_local noundef nonnull align 4 dereferenceable(4) ptr @_ZN24btInverseDynamicsBullet35mat33clEii(ptr noundef nonnull align 4 dereferenceable(48) %0, i32 noundef %1, i32 noundef %2) #2 comdat align 2 {
  %4 = alloca ptr, align 8
  %5 = alloca i32, align 4
  %6 = alloca i32, align 4
  store ptr %0, ptr %4, align 8, !tbaa !22
  store i32 %1, ptr %5, align 4, !tbaa !9
  store i32 %2, ptr %6, align 4, !tbaa !9
  %7 = load ptr, ptr %4, align 8
  %8 = load i32, ptr %5, align 4, !tbaa !9
  %9 = call noundef nonnull align 4 dereferenceable(16) ptr @_ZN11btMatrix3x3ixEi(ptr noundef nonnull align 4 dereferenceable(48) %7, i32 noundef %8)
  %10 = call noundef ptr @_ZN9btVector3cvPfEv(ptr noundef nonnull align 4 dereferenceable(16) %9)
  %11 = load i32, ptr %6, align 4, !tbaa !9
  %12 = sext i32 %11 to i64
  %13 = getelementptr inbounds float, ptr %10, i64 %12
  ret ptr %13
}

; Function Attrs: mustprogress uwtable
define dso_local void @_ZN24btInverseDynamicsBullet34skewERNS_4vec3EPNS_5mat33E(ptr noundef nonnull align 4 dereferenceable(16) %0, ptr noundef %1) #2 {
  %3 = alloca ptr, align 8
  %4 = alloca ptr, align 8
  store ptr %0, ptr %3, align 8, !tbaa !12
  store ptr %1, ptr %4, align 8, !tbaa !22
  %5 = load ptr, ptr %4, align 8, !tbaa !22
  %6 = call noundef nonnull align 4 dereferenceable(4) ptr @_ZN24btInverseDynamicsBullet35mat33clEii(ptr noundef nonnull align 4 dereferenceable(48) %5, i32 noundef 0, i32 noundef 0)
  store float 0.000000e+00, ptr %6, align 4, !tbaa !14
  %7 = load ptr, ptr %3, align 8, !tbaa !12
  %8 = call noundef nonnull align 4 dereferenceable(4) ptr @_ZN24btInverseDynamicsBullet34vec3clEi(ptr noundef nonnull align 4 dereferenceable(16) %7, i32 noundef 2)
  %9 = load float, ptr %8, align 4, !tbaa !14
  %10 = fneg float %9
  %11 = load ptr, ptr %4, align 8, !tbaa !22
  %12 = call noundef nonnull align 4 dereferenceable(4) ptr @_ZN24btInverseDynamicsBullet35mat33clEii(ptr noundef nonnull align 4 dereferenceable(48) %11, i32 noundef 0, i32 noundef 1)
  store float %10, ptr %12, align 4, !tbaa !14
  %13 = load ptr, ptr %3, align 8, !tbaa !12
  %14 = call noundef nonnull align 4 dereferenceable(4) ptr @_ZN24btInverseDynamicsBullet34vec3clEi(ptr noundef nonnull align 4 dereferenceable(16) %13, i32 noundef 1)
  %15 = load float, ptr %14, align 4, !tbaa !14
  %16 = load ptr, ptr %4, align 8, !tbaa !22
  %17 = call noundef nonnull align 4 dereferenceable(4) ptr @_ZN24btInverseDynamicsBullet35mat33clEii(ptr noundef nonnull align 4 dereferenceable(48) %16, i32 noundef 0, i32 noundef 2)
  store float %15, ptr %17, align 4, !tbaa !14
  %18 = load ptr, ptr %3, align 8, !tbaa !12
  %19 = call noundef nonnull align 4 dereferenceable(4) ptr @_ZN24btInverseDynamicsBullet34vec3clEi(ptr noundef nonnull align 4 dereferenceable(16) %18, i32 noundef 2)
  %20 = load float, ptr %19, align 4, !tbaa !14
  %21 = load ptr, ptr %4, align 8, !tbaa !22
  %22 = call noundef nonnull align 4 dereferenceable(4) ptr @_ZN24btInverseDynamicsBullet35mat33clEii(ptr noundef nonnull align 4 dereferenceable(48) %21, i32 noundef 1, i32 noundef 0)
  store float %20, ptr %22, align 4, !tbaa !14
  %23 = load ptr, ptr %4, align 8, !tbaa !22
  %24 = call noundef nonnull align 4 dereferenceable(4) ptr @_ZN24btInverseDynamicsBullet35mat33clEii(ptr noundef nonnull align 4 dereferenceable(48) %23, i32 noundef 1, i32 noundef 1)
  store float 0.000000e+00, ptr %24, align 4, !tbaa !14
  %25 = load ptr, ptr %3, align 8, !tbaa !12
  %26 = call noundef nonnull align 4 dereferenceable(4) ptr @_ZN24btInverseDynamicsBullet34vec3clEi(ptr noundef nonnull align 4 dereferenceable(16) %25, i32 noundef 0)
  %27 = load float, ptr %26, align 4, !tbaa !14
  %28 = fneg float %27
  %29 = load ptr, ptr %4, align 8, !tbaa !22
  %30 = call noundef nonnull align 4 dereferenceable(4) ptr @_ZN24btInverseDynamicsBullet35mat33clEii(ptr noundef nonnull align 4 dereferenceable(48) %29, i32 noundef 1, i32 noundef 2)
  store float %28, ptr %30, align 4, !tbaa !14
  %31 = load ptr, ptr %3, align 8, !tbaa !12
  %32 = call noundef nonnull align 4 dereferenceable(4) ptr @_ZN24btInverseDynamicsBullet34vec3clEi(ptr noundef nonnull align 4 dereferenceable(16) %31, i32 noundef 1)
  %33 = load float, ptr %32, align 4, !tbaa !14
  %34 = fneg float %33
  %35 = load ptr, ptr %4, align 8, !tbaa !22
  %36 = call noundef nonnull align 4 dereferenceable(4) ptr @_ZN24btInverseDynamicsBullet35mat33clEii(ptr noundef nonnull align 4 dereferenceable(48) %35, i32 noundef 2, i32 noundef 0)
  store float %34, ptr %36, align 4, !tbaa !14
  %37 = load ptr, ptr %3, align 8, !tbaa !12
  %38 = call noundef nonnull align 4 dereferenceable(4) ptr @_ZN24btInverseDynamicsBullet34vec3clEi(ptr noundef nonnull align 4 dereferenceable(16) %37, i32 noundef 0)
  %39 = load float, ptr %38, align 4, !tbaa !14
  %40 = load ptr, ptr %4, align 8, !tbaa !22
  %41 = call noundef nonnull align 4 dereferenceable(4) ptr @_ZN24btInverseDynamicsBullet35mat33clEii(ptr noundef nonnull align 4 dereferenceable(48) %40, i32 noundef 2, i32 noundef 1)
  store float %39, ptr %41, align 4, !tbaa !14
  %42 = load ptr, ptr %4, align 8, !tbaa !22
  %43 = call noundef nonnull align 4 dereferenceable(4) ptr @_ZN24btInverseDynamicsBullet35mat33clEii(ptr noundef nonnull align 4 dereferenceable(48) %42, i32 noundef 2, i32 noundef 2)
  store float 0.000000e+00, ptr %43, align 4, !tbaa !14
  ret void
}