; Function Attrs: mustprogress nofree norecurse nosync nounwind willreturn memory(argmem: readwrite) uwtable
define dso_local void @_ZN24btInverseDynamicsBullet34skewERNS_4vec3EPNS_5mat33E(ptr noundef nonnull readonly align 4 captures(none) dereferenceable(16) %0, ptr noundef writeonly captures(none) initializes((0, 12), (16, 28), (32, 44)) %1) local_unnamed_addr #2 {
  store float 0.000000e+00, ptr %1, align 4, !tbaa !4
  %3 = getelementptr inbounds nuw i8, ptr %0, i64 8
  %4 = load float, ptr %3, align 4, !tbaa !4
  %5 = fneg float %4
  %6 = getelementptr inbounds nuw i8, ptr %1, i64 4
  store float %5, ptr %6, align 4, !tbaa !4
  %7 = getelementptr inbounds nuw i8, ptr %0, i64 4
  %8 = load float, ptr %7, align 4, !tbaa !4
  %9 = getelementptr inbounds nuw i8, ptr %1, i64 8
  store float %8, ptr %9, align 4, !tbaa !4
  %10 = load float, ptr %3, align 4, !tbaa !4
  %11 = getelementptr inbounds nuw i8, ptr %1, i64 16
  store float %10, ptr %11, align 4, !tbaa !4
  %12 = getelementptr inbounds nuw i8, ptr %1, i64 20
  store float 0.000000e+00, ptr %12, align 4, !tbaa !4
  %13 = load float, ptr %0, align 4, !tbaa !4
  %14 = fneg float %13
  %15 = getelementptr inbounds nuw i8, ptr %1, i64 24
  store float %14, ptr %15, align 4, !tbaa !4
  %16 = load float, ptr %7, align 4, !tbaa !4
  %17 = fneg float %16
  %18 = getelementptr inbounds nuw i8, ptr %1, i64 32
  store float %17, ptr %18, align 4, !tbaa !4
  %19 = load float, ptr %0, align 4, !tbaa !4
  %20 = getelementptr inbounds nuw i8, ptr %1, i64 36
  store float %19, ptr %20, align 4, !tbaa !4
  %21 = getelementptr inbounds nuw i8, ptr %1, i64 40
  store float 0.000000e+00, ptr %21, align 4, !tbaa !4
  ret void
}